; Function Attrs: mustprogress uwtable
define hidden noundef zeroext i1 @_ZN14arith_rewriter20is_pi_integer_offsetEP4exprRS1_(ptr noundef nonnull align 8 dereferenceable(96) %this, ptr noundef readonly %t, ptr nocapture noundef nonnull writeonly align 8 dereferenceable(8) %m) local_unnamed_addr #3 align 2 {
entry:
  %m_kind.i.i.i = getelementptr inbounds i8, ptr %t, i64 4
  %bf.load.i.i.i = load i32, ptr %m_kind.i.i.i, align 4
  %bf.clear.i.i.i = and i32 %bf.load.i.i.i, 65535
  %cmp.i.i = icmp eq i32 %bf.clear.i.i.i, 0
  br i1 %cmp.i.i, label %land.rhs.i.i, label %return

land.rhs.i.i:                                     ; preds = %entry
  %m_decl.i.i.i = getelementptr inbounds i8, ptr %t, i64 16
  %0 = load ptr, ptr %m_decl.i.i.i, align 8
  %m_info.i.i.i.i = getelementptr inbounds i8, ptr %0, i64 24
  %1 = load ptr, ptr %m_info.i.i.i.i, align 8
  %tobool.not.i.i.i.i = icmp eq ptr %1, null
  br i1 %tobool.not.i.i.i.i, label %return, label %_ZNK17arith_recognizers6is_addEPK4expr.exit

_ZNK17arith_recognizers6is_addEPK4expr.exit:      ; preds = %land.rhs.i.i
  %2 = load i32, ptr %1, align 8
  %cmp.i.i.i.i.i = icmp eq i32 %2, 5
  %m_kind.i.i.i.i.i = getelementptr inbounds i8, ptr %1, i64 4
  %3 = load i32, ptr %m_kind.i.i.i.i.i, align 4
  %cmp2.i.i.i.i.i = icmp eq i32 %3, 6
  %4 = select i1 %cmp.i.i.i.i.i, i1 %cmp2.i.i.i.i.i, i1 false
  br i1 %4, label %if.then, label %return

if.then:                                          ; preds = %_ZNK17arith_recognizers6is_addEPK4expr.exit
  %m_num_args.i = getelementptr inbounds i8, ptr %t, i64 24
  %5 = load i32, ptr %m_num_args.i, align 8
  %idx.ext.i = zext i32 %5 to i64
  %add.ptr.i.idx = shl nuw nsw i64 %idx.ext.i, 3
  %6 = getelementptr i8, ptr %t, i64 %add.ptr.i.idx
  %add.ptr.i.ptr = getelementptr i8, ptr %6, i64 32
  %cmp.not7 = icmp eq i32 %5, 0
  br i1 %cmp.not7, label %return, label %for.body.preheader

for.body.preheader:                               ; preds = %if.then
  %m_args.i.ptr = getelementptr inbounds i8, ptr %t, i64 32
  br label %for.body

for.cond:                                         ; preds = %for.body
  %incdec.ptr = getelementptr inbounds i8, ptr %__begin2.08, i64 8
  %cmp.not = icmp eq ptr %incdec.ptr, %add.ptr.i.ptr
  br i1 %cmp.not, label %return, label %for.body

for.body:                                         ; preds = %for.body.preheader, %for.cond
  %__begin2.08 = phi ptr [ %incdec.ptr, %for.cond ], [ %m_args.i.ptr, %for.body.preheader ]
  %7 = load ptr, ptr %__begin2.08, align 8
  %call5 = tail call noundef zeroext i1 @_ZN14arith_rewriter13is_pi_integerEP4expr(ptr noundef nonnull align 8 dereferenceable(96) %this, ptr noundef %7)
  br i1 %call5, label %if.then6, label %for.cond

if.then6:                                         ; preds = %for.body
  store ptr %7, ptr %m, align 8
  br label %return

return:                                           ; preds = %for.cond, %if.then, %land.rhs.i.i, %entry, %_ZNK17arith_recognizers6is_addEPK4expr.exit, %if.then6
  %retval.0 = phi i1 [ true, %if.then6 ], [ false, %_ZNK17arith_recognizers6is_addEPK4expr.exit ], [ false, %entry ], [ false, %land.rhs.i.i ], [ false, %if.then ], [ false, %for.cond ]
  ret i1 %retval.0
}